target datalayout = "e-m:e-p270:32:32-p271:32:32-p272:64:64-i64:64-i128:128-f80:128-n8:16:32:64-S128"
target triple = "x86_64-pc-linux-gnu"

%struct.IDAMemRec = type { ptr, double, ptr, ptr, i32, double, double, ptr, i32, i32, ptr, ptr, i32, i32, i32, ptr, ptr, i32, i32, double, double, ptr, i32, i32, i32, i32, ptr, ptr, i32, ptr, ptr, ptr, i32, double, i32, i32, double, ptr, ptr, ptr, i32, ptr, ptr, i32, i32, i32, double, ptr, ptr, ptr, [6 x ptr], [6 x double], [6 x double], [6 x double], [6 x double], [6 x double], ptr, ptr, ptr, ptr, ptr, ptr, ptr, ptr, ptr, ptr, ptr, ptr, ptr, ptr, ptr, ptr, ptr, [6 x ptr], ptr, ptr, ptr, ptr, [6 x ptr], ptr, ptr, ptr, ptr, ptr, ptr, ptr, ptr, ptr, ptr, ptr, ptr, ptr, ptr, ptr, ptr, [6 x ptr], ptr, ptr, ptr, ptr, ptr, double, ptr, ptr, i32, i32, i32, i32, i32, i32, i32, i32, double, double, double, i32, double, i32, i32, i32, i32, i32, double, double, double, double, double, double, double, double, double, double, double, double, double, double, double, double, double, i32, i32, i32, i32, i64, double, double, double, double, double, double, double, double, double, i64, i64, i64, i64, i64, i64, i64, i64, i64, i64, i64, i64, i64, i64, i64, i64, i64, i64, i64, i64, i64, i64, i64, i64, i64, i64, double, i32, i32, i32, i32, i32, i32, i32, i32, i32, i32, i32, i32, i32, ptr, i32, ptr, i32, ptr, i32, ptr, ptr, ptr, ptr, ptr, ptr, i32, i32, ptr, ptr, ptr, ptr, ptr, ptr, ptr, double, i32, i32, ptr, i32, ptr, ptr, double, double, double, ptr, ptr, ptr, double, double, i32, i32, i64, ptr, i32, ptr, [5 x double], ptr, ptr, i32, ptr, i32 }
%struct.IDAadjMemRec = type { double, double, i32, i32, double, i32, double, ptr, i32, ptr, i32, ptr, ptr, i32, i64, i64, ptr, i64, i32, ptr, ptr, ptr, ptr, i32, i32, i32, i32, i32, [6 x ptr], [6 x ptr], [6 x double], ptr, ptr, ptr, ptr }
%struct.IDABMemRec = type { i32, double, ptr, i32, i32, ptr, ptr, ptr, ptr, ptr, ptr, ptr, ptr, ptr, double, ptr, ptr, ptr }
%struct.IDABBDPrecDataRecB = type { ptr, ptr }

@.str = private unnamed_addr constant [118 x i8] c"generated/home/dtcxzyw/WorkSpace/Projects/compilers/llvm-opt-benchmark/bench/sundials/sundials/src/idas/idas_bbdpre.c\00", align 1
@.str.10 = private unnamed_addr constant [25 x i8] c"Bad t for interpolation.\00", align 1
@__func__.IDAAgcomm = private unnamed_addr constant [10 x i8] c"IDAAgcomm\00", align 1

; Function Attrs: nounwind uwtable
define internal i32 @IDAAgcomm(i64 noundef %0, double noundef %1, ptr noundef %2, ptr noundef %3, ptr noundef %4) #0 {
  %6 = alloca i32, align 4
  %7 = alloca i64, align 8
  %8 = alloca double, align 8
  %9 = alloca ptr, align 8
  %10 = alloca ptr, align 8
  %11 = alloca ptr, align 8
  %12 = alloca ptr, align 8
  %13 = alloca ptr, align 8
  %14 = alloca ptr, align 8
  %15 = alloca ptr, align 8
  %16 = alloca i32, align 4
  %17 = alloca i32, align 4
  store i64 %0, ptr %7, align 8, !tbaa !7
  store double %1, ptr %8, align 8, !tbaa !9
  store ptr %2, ptr %9, align 8, !tbaa !73
  store ptr %3, ptr %10, align 8, !tbaa !73
  store ptr %4, ptr %11, align 8, !tbaa !3
  call void @llvm.lifetime.start.p0(i64 8, ptr %12) #6
  call void @llvm.lifetime.start.p0(i64 8, ptr %13) #6
  call void @llvm.lifetime.start.p0(i64 8, ptr %14) #6
  call void @llvm.lifetime.start.p0(i64 8, ptr %15) #6
  call void @llvm.lifetime.start.p0(i64 4, ptr %16) #6
  %18 = load ptr, ptr %11, align 8, !tbaa !3
  store ptr %18, ptr %12, align 8, !tbaa !11
  %19 = load ptr, ptr %12, align 8, !tbaa !11
  %20 = getelementptr inbounds nuw %struct.IDAMemRec, ptr %19, i32 0, i32 239
  %21 = load ptr, ptr %20, align 8, !tbaa !77
  store ptr %21, ptr %13, align 8, !tbaa !78
  %22 = load ptr, ptr %13, align 8, !tbaa !78
  %23 = getelementptr inbounds nuw %struct.IDAadjMemRec, ptr %22, i32 0, i32 9
  %24 = load ptr, ptr %23, align 8, !tbaa !97
  store ptr %24, ptr %14, align 8, !tbaa !85
  %25 = load ptr, ptr %14, align 8, !tbaa !85
  %26 = getelementptr inbounds nuw %struct.IDABMemRec, ptr %25, i32 0, i32 12
  %27 = load ptr, ptr %26, align 8, !tbaa !95
  store ptr %27, ptr %15, align 8, !tbaa !90
  %28 = load ptr, ptr %15, align 8, !tbaa !90
  %29 = getelementptr inbounds nuw %struct.IDABBDPrecDataRecB, ptr %28, i32 0, i32 1
  %30 = load ptr, ptr %29, align 8, !tbaa !94
  %31 = icmp eq ptr %30, null
  br i1 %31, label %32, label %33

32:                                               ; preds = %5
  store i32 0, ptr %6, align 4
  store i32 1, ptr %17, align 4
  br label %74

33:                                               ; preds = %5
  %34 = load ptr, ptr %13, align 8, !tbaa !78
  %35 = getelementptr inbounds nuw %struct.IDAadjMemRec, ptr %34, i32 0, i32 27
  %36 = load i32, ptr %35, align 8, !tbaa !98
  %37 = icmp eq i32 %36, 0
  br i1 %37, label %38, label %56

38:                                               ; preds = %33
  %39 = load ptr, ptr %13, align 8, !tbaa !78
  %40 = getelementptr inbounds nuw %struct.IDAadjMemRec, ptr %39, i32 0, i32 20
  %41 = load ptr, ptr %40, align 8, !tbaa !99
  %42 = load ptr, ptr %12, align 8, !tbaa !11
  %43 = load double, ptr %8, align 8, !tbaa !9
  %44 = load ptr, ptr %13, align 8, !tbaa !78
  %45 = getelementptr inbounds nuw %struct.IDAadjMemRec, ptr %44, i32 0, i32 31
  %46 = load ptr, ptr %45, align 8, !tbaa !100
  %47 = load ptr, ptr %13, align 8, !tbaa !78
  %48 = getelementptr inbounds nuw %struct.IDAadjMemRec, ptr %47, i32 0, i32 32
  %49 = load ptr, ptr %48, align 8, !tbaa !101
  %50 = call i32 %41(ptr noundef %42, double noundef %43, ptr noundef %46, ptr noundef %49, ptr noundef null, ptr noundef null)
  store i32 %50, ptr %16, align 4, !tbaa !52
  %51 = load i32, ptr %16, align 4, !tbaa !52
  %52 = icmp ne i32 %51, 0
  br i1 %52, label %53, label %55

53:                                               ; preds = %38
  %54 = load ptr, ptr %12, align 8, !tbaa !11
  call void (ptr, i32, i32, ptr, ptr, ptr, ...) @IDAProcessError(ptr noundef %54, i32 noundef -1, i32 noundef 945, ptr noundef @__func__.IDAAgcomm, ptr noundef @.str, ptr noundef @.str.10)
  store i32 -1, ptr %6, align 4
  store i32 1, ptr %17, align 4
  br label %74

55:                                               ; preds = %38
  br label %56

56:                                               ; preds = %55, %33
  %57 = load ptr, ptr %15, align 8, !tbaa !90
  %58 = getelementptr inbounds nuw %struct.IDABBDPrecDataRecB, ptr %57, i32 0, i32 1
  %59 = load ptr, ptr %58, align 8, !tbaa !94
  %60 = load i64, ptr %7, align 8, !tbaa !7
  %61 = load double, ptr %8, align 8, !tbaa !9
  %62 = load ptr, ptr %13, align 8, !tbaa !78
  %63 = getelementptr inbounds nuw %struct.IDAadjMemRec, ptr %62, i32 0, i32 31
  %64 = load ptr, ptr %63, align 8, !tbaa !100
  %65 = load ptr, ptr %13, align 8, !tbaa !78
  %66 = getelementptr inbounds nuw %struct.IDAadjMemRec, ptr %65, i32 0, i32 32
  %67 = load ptr, ptr %66, align 8, !tbaa !101
  %68 = load ptr, ptr %9, align 8, !tbaa !73
  %69 = load ptr, ptr %10, align 8, !tbaa !73
  %70 = load ptr, ptr %14, align 8, !tbaa !85
  %71 = getelementptr inbounds nuw %struct.IDABMemRec, ptr %70, i32 0, i32 9
  %72 = load ptr, ptr %71, align 8, !tbaa !102
  %73 = call i32 %59(i64 noundef %60, double noundef %61, ptr noundef %64, ptr noundef %67, ptr noundef %68, ptr noundef %69, ptr noundef %72)
  store i32 %73, ptr %6, align 4
  store i32 1, ptr %17, align 4
  br label %74

74:                                               ; preds = %56, %53, %32
  call void @llvm.lifetime.end.p0(i64 4, ptr %16) #6
  call void @llvm.lifetime.end.p0(i64 8, ptr %15) #6
  call void @llvm.lifetime.end.p0(i64 8, ptr %14) #6
  call void @llvm.lifetime.end.p0(i64 8, ptr %13) #6
  call void @llvm.lifetime.end.p0(i64 8, ptr %12) #6
  %75 = load i32, ptr %6, align 4
  ret i32 %75
}