; Function Attrs: nounwind uwtable
define internal i32 @IDAAgcomm(i64 noundef %0, double noundef %1, ptr noundef %2, ptr noundef %3, ptr noundef %4) #0 {
  %6 = getelementptr inbounds nuw i8, ptr %4, i64 2112
  %7 = load ptr, ptr %6, align 8, !tbaa !72
  %8 = getelementptr inbounds nuw i8, ptr %7, i64 64
  %9 = load ptr, ptr %8, align 8, !tbaa !89
  %10 = getelementptr inbounds nuw i8, ptr %9, i64 88
  %11 = load ptr, ptr %10, align 8, !tbaa !87
  %12 = getelementptr inbounds nuw i8, ptr %11, i64 8
  %13 = load ptr, ptr %12, align 8, !tbaa !86
  %14 = icmp eq ptr %13, null
  br i1 %14, label %37, label %15

15:                                               ; preds = %5
  %16 = getelementptr inbounds nuw i8, ptr %7, i64 192
  %17 = load i32, ptr %16, align 8, !tbaa !90
  %18 = icmp eq i32 %17, 0
  br i1 %18, label %19, label %28

19:                                               ; preds = %15
  %20 = getelementptr inbounds nuw i8, ptr %7, i64 152
  %21 = load ptr, ptr %20, align 8, !tbaa !91
  %22 = getelementptr inbounds nuw i8, ptr %7, i64 344
  %23 = load ptr, ptr %22, align 8, !tbaa !92
  %24 = getelementptr inbounds nuw i8, ptr %7, i64 352
  %25 = load ptr, ptr %24, align 8, !tbaa !93
  %26 = tail call i32 %21(ptr noundef nonnull %4, double noundef %1, ptr noundef %23, ptr noundef %25, ptr noundef null, ptr noundef null) #10
  %.not = icmp eq i32 %26, 0
  br i1 %.not, label %._crit_edge, label %27

._crit_edge:                                      ; preds = %19
  %.pre = load ptr, ptr %12, align 8, !tbaa !86
  br label %28

27:                                               ; preds = %19
  tail call void (ptr, i32, i32, ptr, ptr, ptr, ...) @IDAProcessError(ptr noundef nonnull %4, i32 noundef -1, i32 noundef 945, ptr noundef nonnull @__func__.IDAAgcomm, ptr noundef nonnull @.str, ptr noundef nonnull @.str.10) #10
  br label %37

28:                                               ; preds = %._crit_edge, %15
  %29 = phi ptr [ %.pre, %._crit_edge ], [ %13, %15 ]
  %30 = getelementptr inbounds nuw i8, ptr %7, i64 344
  %31 = load ptr, ptr %30, align 8, !tbaa !92
  %32 = getelementptr inbounds nuw i8, ptr %7, i64 352
  %33 = load ptr, ptr %32, align 8, !tbaa !93
  %34 = getelementptr inbounds nuw i8, ptr %9, i64 64
  %35 = load ptr, ptr %34, align 8, !tbaa !94
  %36 = tail call i32 %29(i64 noundef %0, double noundef %1, ptr noundef %31, ptr noundef %33, ptr noundef %2, ptr noundef %3, ptr noundef %35) #10
  br label %37

37:                                               ; preds = %5, %28, %27
  %.0 = phi i32 [ -1, %27 ], [ %36, %28 ], [ 0, %5 ]
  ret i32 %.0
}